; ModuleID = 'source-C-CXX/46/3066.cpp'
source_filename = "source-C-CXX/46/3066.cpp"
target datalayout = "e-m:e-p270:32:32-p271:32:32-p272:64:64-i64:64-f80:128-n8:16:32:64-S128"
target triple = "x86_64-pc-linux-gnu"

%"class.std::ios_base::Init" = type { i8 }
%"class.std::basic_istream" = type { i32 (...)**, i64, %"class.std::basic_ios" }
%"class.std::basic_ios" = type { %"class.std::ios_base", %"class.std::basic_ostream"*, i8, i8, %"class.std::basic_streambuf"*, %"class.std::ctype"*, %"class.std::num_put"*, %"class.std::num_get"* }
%"class.std::ios_base" = type { i32 (...)**, i64, i64, i32, i32, i32, %"struct.std::ios_base::_Callback_list"*, %"struct.std::ios_base::_Words", [8 x %"struct.std::ios_base::_Words"], i32, %"struct.std::ios_base::_Words"*, %"class.std::locale" }
%"struct.std::ios_base::_Callback_list" = type { %"struct.std::ios_base::_Callback_list"*, void (i32, %"class.std::ios_base"*, i32)*, i32, i32 }
%"struct.std::ios_base::_Words" = type { i8*, i64 }
%"class.std::locale" = type { %"class.std::locale::_Impl"* }
%"class.std::locale::_Impl" = type { i32, %"class.std::locale::facet"**, i64, %"class.std::locale::facet"**, i8** }
%"class.std::locale::facet" = type <{ i32 (...)**, i32, [4 x i8] }>
%"class.std::basic_ostream" = type { i32 (...)**, %"class.std::basic_ios" }
%"class.std::basic_streambuf" = type { i32 (...)**, i8*, i8*, i8*, i8*, i8*, i8*, %"class.std::locale" }
%"class.std::ctype" = type <{ %"class.std::locale::facet.base", [4 x i8], %struct.__locale_struct*, i8, [7 x i8], i32*, i32*, i16*, i8, [256 x i8], [256 x i8], i8, [6 x i8] }>
%"class.std::locale::facet.base" = type <{ i32 (...)**, i32 }>
%struct.__locale_struct = type { [13 x %struct.__locale_data*], i16*, i32*, i32*, [13 x i8*] }
%struct.__locale_data = type opaque
%"class.std::num_put" = type { %"class.std::locale::facet.base", [4 x i8] }
%"class.std::num_get" = type { %"class.std::locale::facet.base", [4 x i8] }

@_ZStL8__ioinit = internal global %"class.std::ios_base::Init" zeroinitializer, align 1
@__dso_handle = external hidden global i8
@_ZSt3cin = external global %"class.std::basic_istream", align 8
@_ZSt4cout = external global %"class.std::basic_ostream", align 8
@llvm.global_ctors = appending global [1 x { i32, void ()*, i8* }] [{ i32, void ()*, i8* } { i32 65535, void ()* @_GLOBAL__sub_I_3066.cpp, i8* null }]

declare void @_ZNSt8ios_base4InitC1Ev(%"class.std::ios_base::Init"* nonnull align 1 dereferenceable(1)) unnamed_addr #0

; Function Attrs: nounwind
declare void @_ZNSt8ios_base4InitD1Ev(%"class.std::ios_base::Init"* nonnull align 1 dereferenceable(1)) unnamed_addr #1

; Function Attrs: nofree nounwind
declare i32 @__cxa_atexit(void (i8*)*, i8*, i8*) local_unnamed_addr #2

; Function Attrs: mustprogress norecurse sspstrong uwtable
define dso_local i32 @main() local_unnamed_addr #3 {
  %1 = alloca i8, align 1
  %2 = alloca i32, align 4
  %3 = bitcast i32* %2 to i8*
  call void @llvm.lifetime.start.p0i8(i64 4, i8* nonnull %3) #8
  store i32 0, i32* %2, align 4, !tbaa !5
  %4 = call nonnull align 8 dereferenceable(16) %"class.std::basic_istream"* @_ZNSirsERi(%"class.std::basic_istream"* nonnull align 8 dereferenceable(16) @_ZSt3cin, i32* nonnull align 4 dereferenceable(4) %2)
  %5 = load i32, i32* %2, align 4, !tbaa !5
  %6 = zext i32 %5 to i64
  %7 = call i8* @llvm.stacksave()
  %8 = alloca i32, i64 %6, align 16
  %9 = load i32, i32* %2, align 4, !tbaa !5
  %10 = icmp sgt i32 %9, 0
  br i1 %10, label %11, label %19

11:                                               ; preds = %0, %11
  %12 = phi i64 [ %15, %11 ], [ 0, %0 ]
  %13 = getelementptr inbounds i32, i32* %8, i64 %12
  %14 = call nonnull align 8 dereferenceable(16) %"class.std::basic_istream"* @_ZNSirsERi(%"class.std::basic_istream"* nonnull align 8 dereferenceable(16) @_ZSt3cin, i32* nonnull align 4 dereferenceable(4) %13)
  %15 = add nuw nsw i64 %12, 1
  %16 = load i32, i32* %2, align 4, !tbaa !5
  %17 = sext i32 %16 to i64
  %18 = icmp slt i64 %15, %17
  br i1 %18, label %11, label %19, !llvm.loop !9

19:                                               ; preds = %11, %0
  %20 = phi i32 [ %9, %0 ], [ %16, %11 ]
  %21 = srem i32 %20, 2
  %22 = icmp eq i32 %21, 1
  %23 = sdiv i32 %20, 2
  %24 = add nsw i32 %23, 1
  %25 = select i1 %22, i32 %24, i32 0
  %26 = and i32 %20, 1
  %27 = icmp eq i32 %26, 0
  %28 = select i1 %27, i32 %23, i32 %25
  %29 = icmp sgt i32 %28, 0
  br i1 %29, label %30, label %48

30:                                               ; preds = %19
  %31 = zext i32 %28 to i64
  %32 = and i64 %31, 1
  %33 = icmp eq i32 %28, 1
  br i1 %33, label %36, label %34

34:                                               ; preds = %30
  %35 = and i64 %31, 4294967294
  br label %50

36:                                               ; preds = %50, %30
  %37 = phi i64 [ 0, %30 ], [ %70, %50 ]
  %38 = icmp eq i64 %32, 0
  br i1 %38, label %48, label %39

39:                                               ; preds = %36
  %40 = getelementptr inbounds i32, i32* %8, i64 %37
  %41 = load i32, i32* %40, align 4, !tbaa !5
  %42 = trunc i64 %37 to i32
  %43 = xor i32 %42, -1
  %44 = add i32 %20, %43
  %45 = sext i32 %44 to i64
  %46 = getelementptr inbounds i32, i32* %8, i64 %45
  %47 = load i32, i32* %46, align 4, !tbaa !5
  store i32 %47, i32* %40, align 4, !tbaa !5
  store i32 %41, i32* %46, align 4, !tbaa !5
  br label %48

48:                                               ; preds = %39, %36, %19
  %49 = icmp sgt i32 %20, 0
  br i1 %49, label %73, label %101

50:                                               ; preds = %50, %34
  %51 = phi i64 [ 0, %34 ], [ %70, %50 ]
  %52 = phi i64 [ %35, %34 ], [ %71, %50 ]
  %53 = getelementptr inbounds i32, i32* %8, i64 %51
  %54 = load i32, i32* %53, align 8, !tbaa !5
  %55 = trunc i64 %51 to i32
  %56 = xor i32 %55, -1
  %57 = add i32 %20, %56
  %58 = sext i32 %57 to i64
  %59 = getelementptr inbounds i32, i32* %8, i64 %58
  %60 = load i32, i32* %59, align 4, !tbaa !5
  store i32 %60, i32* %53, align 8, !tbaa !5
  store i32 %54, i32* %59, align 4, !tbaa !5
  %61 = or i64 %51, 1
  %62 = getelementptr inbounds i32, i32* %8, i64 %61
  %63 = load i32, i32* %62, align 4, !tbaa !5
  %64 = trunc i64 %61 to i32
  %65 = xor i32 %64, -1
  %66 = add i32 %20, %65
  %67 = sext i32 %66 to i64
  %68 = getelementptr inbounds i32, i32* %8, i64 %67
  %69 = load i32, i32* %68, align 4, !tbaa !5
  store i32 %69, i32* %62, align 4, !tbaa !5
  store i32 %63, i32* %68, align 4, !tbaa !5
  %70 = add nuw nsw i64 %51, 2
  %71 = add i64 %52, -2
  %72 = icmp eq i64 %71, 0
  br i1 %72, label %36, label %50, !llvm.loop !11

73:                                               ; preds = %48, %96
  %74 = phi i32 [ %97, %96 ], [ %20, %48 ]
  %75 = phi i64 [ %98, %96 ], [ 0, %48 ]
  %76 = add nsw i32 %74, -1
  %77 = sext i32 %76 to i64
  %78 = icmp slt i64 %75, %77
  br i1 %78, label %79, label %86

79:                                               ; preds = %73
  %80 = getelementptr inbounds i32, i32* %8, i64 %75
  %81 = load i32, i32* %80, align 4, !tbaa !5
  %82 = call nonnull align 8 dereferenceable(8) %"class.std::basic_ostream"* @_ZNSolsEi(%"class.std::basic_ostream"* nonnull align 8 dereferenceable(8) @_ZSt4cout, i32 %81)
  call void @llvm.lifetime.start.p0i8(i64 1, i8* nonnull %1)
  store i8 32, i8* %1, align 1, !tbaa !12
  %83 = call nonnull align 8 dereferenceable(8) %"class.std::basic_ostream"* @_ZSt16__ostream_insertIcSt11char_traitsIcEERSt13basic_ostreamIT_T0_ES6_PKS3_l(%"class.std::basic_ostream"* nonnull align 8 dereferenceable(8) %82, i8* nonnull %1, i64 1)
  call void @llvm.lifetime.end.p0i8(i64 1, i8* nonnull %1)
  %84 = load i32, i32* %2, align 4, !tbaa !5
  %85 = add nsw i32 %84, -1
  br label %86

86:                                               ; preds = %79, %73
  %87 = phi i32 [ %85, %79 ], [ %76, %73 ]
  %88 = phi i32 [ %84, %79 ], [ %74, %73 ]
  %89 = zext i32 %87 to i64
  %90 = icmp eq i64 %75, %89
  br i1 %90, label %91, label %96

91:                                               ; preds = %86
  %92 = getelementptr inbounds i32, i32* %8, i64 %75
  %93 = load i32, i32* %92, align 4, !tbaa !5
  %94 = call nonnull align 8 dereferenceable(8) %"class.std::basic_ostream"* @_ZNSolsEi(%"class.std::basic_ostream"* nonnull align 8 dereferenceable(8) @_ZSt4cout, i32 %93)
  %95 = load i32, i32* %2, align 4, !tbaa !5
  br label %96

96:                                               ; preds = %86, %91
  %97 = phi i32 [ %88, %86 ], [ %95, %91 ]
  %98 = add nuw nsw i64 %75, 1
  %99 = sext i32 %97 to i64
  %100 = icmp slt i64 %98, %99
  br i1 %100, label %73, label %101, !llvm.loop !13

101:                                              ; preds = %96, %48
  %102 = load i8*, i8** bitcast (%"class.std::basic_ostream"* @_ZSt4cout to i8**), align 8, !tbaa !14
  %103 = getelementptr i8, i8* %102, i64 -24
  %104 = bitcast i8* %103 to i64*
  %105 = load i64, i64* %104, align 8
  %106 = add nsw i64 %105, 240
  %107 = getelementptr inbounds i8, i8* bitcast (%"class.std::basic_ostream"* @_ZSt4cout to i8*), i64 %106
  %108 = bitcast i8* %107 to %"class.std::ctype"**
  %109 = load %"class.std::ctype"*, %"class.std::ctype"** %108, align 8, !tbaa !16
  %110 = icmp eq %"class.std::ctype"* %109, null
  br i1 %110, label %111, label %112

111:                                              ; preds = %101
  call void @_ZSt16__throw_bad_castv() #9
  unreachable

112:                                              ; preds = %101
  %113 = getelementptr inbounds %"class.std::ctype", %"class.std::ctype"* %109, i64 0, i32 8
  %114 = load i8, i8* %113, align 8, !tbaa !20
  %115 = icmp eq i8 %114, 0
  br i1 %115, label %119, label %116

116:                                              ; preds = %112
  %117 = getelementptr inbounds %"class.std::ctype", %"class.std::ctype"* %109, i64 0, i32 9, i64 10
  %118 = load i8, i8* %117, align 1, !tbaa !12
  br label %125

119:                                              ; preds = %112
  call void @_ZNKSt5ctypeIcE13_M_widen_initEv(%"class.std::ctype"* nonnull align 8 dereferenceable(570) %109)
  %120 = bitcast %"class.std::ctype"* %109 to i8 (%"class.std::ctype"*, i8)***
  %121 = load i8 (%"class.std::ctype"*, i8)**, i8 (%"class.std::ctype"*, i8)*** %120, align 8, !tbaa !14
  %122 = getelementptr inbounds i8 (%"class.std::ctype"*, i8)*, i8 (%"class.std::ctype"*, i8)** %121, i64 6
  %123 = load i8 (%"class.std::ctype"*, i8)*, i8 (%"class.std::ctype"*, i8)** %122, align 8
  %124 = call signext i8 %123(%"class.std::ctype"* nonnull align 8 dereferenceable(570) %109, i8 signext 10)
  br label %125

125:                                              ; preds = %116, %119
  %126 = phi i8 [ %118, %116 ], [ %124, %119 ]
  %127 = call nonnull align 8 dereferenceable(8) %"class.std::basic_ostream"* @_ZNSo3putEc(%"class.std::basic_ostream"* nonnull align 8 dereferenceable(8) @_ZSt4cout, i8 signext %126)
  %128 = call nonnull align 8 dereferenceable(8) %"class.std::basic_ostream"* @_ZNSo5flushEv(%"class.std::basic_ostream"* nonnull align 8 dereferenceable(8) %127)
  call void @llvm.stackrestore(i8* %7)
  call void @llvm.lifetime.end.p0i8(i64 4, i8* nonnull %3) #8
  ret i32 0
}

; Function Attrs: argmemonly mustprogress nofree nosync nounwind willreturn
declare void @llvm.lifetime.start.p0i8(i64 immarg, i8* nocapture) #4

declare nonnull align 8 dereferenceable(16) %"class.std::basic_istream"* @_ZNSirsERi(%"class.std::basic_istream"* nonnull align 8 dereferenceable(16), i32* nonnull align 4 dereferenceable(4)) local_unnamed_addr #0

; Function Attrs: mustprogress nofree nosync nounwind willreturn
declare i8* @llvm.stacksave() #5

declare nonnull align 8 dereferenceable(8) %"class.std::basic_ostream"* @_ZNSolsEi(%"class.std::basic_ostream"* nonnull align 8 dereferenceable(8), i32) local_unnamed_addr #0

; Function Attrs: mustprogress nofree nosync nounwind willreturn
declare void @llvm.stackrestore(i8*) #5

; Function Attrs: argmemonly mustprogress nofree nosync nounwind willreturn
declare void @llvm.lifetime.end.p0i8(i64 immarg, i8* nocapture) #4

declare nonnull align 8 dereferenceable(8) %"class.std::basic_ostream"* @_ZSt16__ostream_insertIcSt11char_traitsIcEERSt13basic_ostreamIT_T0_ES6_PKS3_l(%"class.std::basic_ostream"* nonnull align 8 dereferenceable(8), i8*, i64) local_unnamed_addr #0

declare nonnull align 8 dereferenceable(8) %"class.std::basic_ostream"* @_ZNSo3putEc(%"class.std::basic_ostream"* nonnull align 8 dereferenceable(8), i8 signext) local_unnamed_addr #0

declare nonnull align 8 dereferenceable(8) %"class.std::basic_ostream"* @_ZNSo5flushEv(%"class.std::basic_ostream"* nonnull align 8 dereferenceable(8)) local_unnamed_addr #0

; Function Attrs: noreturn
declare void @_ZSt16__throw_bad_castv() local_unnamed_addr #6

declare void @_ZNKSt5ctypeIcE13_M_widen_initEv(%"class.std::ctype"* nonnull align 8 dereferenceable(570)) local_unnamed_addr #0

; Function Attrs: sspstrong uwtable
define internal void @_GLOBAL__sub_I_3066.cpp() #7 section ".text.startup" {
  tail call void @_ZNSt8ios_base4InitC1Ev(%"class.std::ios_base::Init"* nonnull align 1 dereferenceable(1) @_ZStL8__ioinit)
  %1 = tail call i32 @__cxa_atexit(void (i8*)* bitcast (void (%"class.std::ios_base::Init"*)* @_ZNSt8ios_base4InitD1Ev to void (i8*)*), i8* getelementptr inbounds (%"class.std::ios_base::Init", %"class.std::ios_base::Init"* @_ZStL8__ioinit, i64 0, i32 0), i8* nonnull @__dso_handle) #8
  ret void
}


!llvm.module.flags = !{!0, !1, !2, !3}
!llvm.ident = !{!4}

!0 = !{i32 1, !"wchar_size", i32 4}
!1 = !{i32 7, !"PIC Level", i32 2}
!2 = !{i32 7, !"PIE Level", i32 2}
!3 = !{i32 7, !"uwtable", i32 1}
!4 = !{!"clang version 13.0.0"}
!5 = !{!6, !6, i64 0}
!6 = !{!"int", !7, i64 0}
!7 = !{!"omnipotent char", !8, i64 0}
!8 = !{!"Simple C++ TBAA"}
!9 = distinct !{!9, !10}
!10 = !{!"llvm.loop.mustprogress"}
!11 = distinct !{!11, !10}
!12 = !{!7, !7, i64 0}
!13 = distinct !{!13, !10}
!14 = !{!15, !15, i64 0}
!15 = !{!"vtable pointer", !8, i64 0}
!16 = !{!17, !18, i64 240}
!17 = !{!"_ZTSSt9basic_iosIcSt11char_traitsIcEE", !18, i64 216, !7, i64 224, !19, i64 225, !18, i64 232, !18, i64 240, !18, i64 248, !18, i64 256}
!18 = !{!"any pointer", !7, i64 0}
!19 = !{!"bool", !7, i64 0}
!20 = !{!21, !7, i64 56}
!21 = !{!"_ZTSSt5ctypeIcE", !18, i64 16, !19, i64 24, !18, i64 32, !18, i64 40, !18, i64 48, !7, i64 56, !7, i64 57, !7, i64 313, !7, i64 569}
